#include <math.h>
#include <stdio.h>
#include <stdlib.h>
#include <string.h>

int main()
{
	int n,i,k,p;
    double x[100][50],av[50],fangcha[50];
	
	scanf("%d",&k);
for(p=0;p<k;p++)
{
	av[p]=0;
	fangcha[p]=0;
scanf("%d",&n);
	for(i=0;i<n;i++)
	{
		scanf("%lf",&x[i][p]);
	av[p]+=x[i][p]/n;
	}
	for(i=0;i<n;i++)
	{
	fangcha[p]+=(x[i][p]-av[p])*(x[i][p]-av[p]);
	}
	fangcha[p]=sqrt(fangcha[p]/n);
}
for(p=0;p<k;p++)
{
	printf("%.5lf\n",fangcha[p]);
}
	return 0;
}
