; ModuleID = '38/1253.c'
source_filename = "38/1253.c"
target datalayout = "e-m:e-p270:32:32-p271:32:32-p272:64:64-i64:64-f80:128-n8:16:32:64-S128"
target triple = "x86_64-pc-linux-gnu"

@.str = private unnamed_addr constant [3 x i8] c"%d\00", align 1
@.str.1 = private unnamed_addr constant [4 x i8] c"%lf\00", align 1
@.str.2 = private unnamed_addr constant [7 x i8] c"%.5lf\0A\00", align 1

; Function Attrs: noinline nounwind uwtable
define dso_local i32 @main() #0 {
  %1 = alloca i32, align 4
  %2 = alloca i32, align 4
  %3 = alloca i32, align 4
  %4 = alloca i32, align 4
  %5 = alloca i32, align 4
  %6 = alloca [100 x [50 x double]], align 16
  %7 = alloca [50 x double], align 16
  %8 = alloca [50 x double], align 16
  store i32 0, i32* %1, align 4
  %9 = call i32 (i8*, ...) @__isoc99_scanf(i8* getelementptr inbounds ([3 x i8], [3 x i8]* @.str, i64 0, i64 0), i32* %4)
  store i32 0, i32* %5, align 4
  br label %10

10:                                               ; preds = %103, %0
  %11 = load i32, i32* %5, align 4
  %12 = load i32, i32* %4, align 4
  %13 = icmp slt i32 %11, %12
  br i1 %13, label %14, label %106

14:                                               ; preds = %10
  %15 = load i32, i32* %5, align 4
  %16 = sext i32 %15 to i64
  %17 = getelementptr inbounds [50 x double], [50 x double]* %7, i64 0, i64 %16
  store double 0.000000e+00, double* %17, align 8
  %18 = load i32, i32* %5, align 4
  %19 = sext i32 %18 to i64
  %20 = getelementptr inbounds [50 x double], [50 x double]* %8, i64 0, i64 %19
  store double 0.000000e+00, double* %20, align 8
  %21 = call i32 (i8*, ...) @__isoc99_scanf(i8* getelementptr inbounds ([3 x i8], [3 x i8]* @.str, i64 0, i64 0), i32* %2)
  store i32 0, i32* %3, align 4
  br label %22

22:                                               ; preds = %49, %14
  %23 = load i32, i32* %3, align 4
  %24 = load i32, i32* %2, align 4
  %25 = icmp slt i32 %23, %24
  br i1 %25, label %26, label %52

26:                                               ; preds = %22
  %27 = load i32, i32* %3, align 4
  %28 = sext i32 %27 to i64
  %29 = getelementptr inbounds [100 x [50 x double]], [100 x [50 x double]]* %6, i64 0, i64 %28
  %30 = load i32, i32* %5, align 4
  %31 = sext i32 %30 to i64
  %32 = getelementptr inbounds [50 x double], [50 x double]* %29, i64 0, i64 %31
  %33 = call i32 (i8*, ...) @__isoc99_scanf(i8* getelementptr inbounds ([4 x i8], [4 x i8]* @.str.1, i64 0, i64 0), double* %32)
  %34 = load i32, i32* %3, align 4
  %35 = sext i32 %34 to i64
  %36 = getelementptr inbounds [100 x [50 x double]], [100 x [50 x double]]* %6, i64 0, i64 %35
  %37 = load i32, i32* %5, align 4
  %38 = sext i32 %37 to i64
  %39 = getelementptr inbounds [50 x double], [50 x double]* %36, i64 0, i64 %38
  %40 = load double, double* %39, align 8
  %41 = load i32, i32* %2, align 4
  %42 = sitofp i32 %41 to double
  %43 = fdiv double %40, %42
  %44 = load i32, i32* %5, align 4
  %45 = sext i32 %44 to i64
  %46 = getelementptr inbounds [50 x double], [50 x double]* %7, i64 0, i64 %45
  %47 = load double, double* %46, align 8
  %48 = fadd double %47, %43
  store double %48, double* %46, align 8
  br label %49

49:                                               ; preds = %26
  %50 = load i32, i32* %3, align 4
  %51 = add nsw i32 %50, 1
  store i32 %51, i32* %3, align 4
  br label %22

52:                                               ; preds = %22
  store i32 0, i32* %3, align 4
  br label %53

53:                                               ; preds = %88, %52
  %54 = load i32, i32* %3, align 4
  %55 = load i32, i32* %2, align 4
  %56 = icmp slt i32 %54, %55
  br i1 %56, label %57, label %91

57:                                               ; preds = %53
  %58 = load i32, i32* %3, align 4
  %59 = sext i32 %58 to i64
  %60 = getelementptr inbounds [100 x [50 x double]], [100 x [50 x double]]* %6, i64 0, i64 %59
  %61 = load i32, i32* %5, align 4
  %62 = sext i32 %61 to i64
  %63 = getelementptr inbounds [50 x double], [50 x double]* %60, i64 0, i64 %62
  %64 = load double, double* %63, align 8
  %65 = load i32, i32* %5, align 4
  %66 = sext i32 %65 to i64
  %67 = getelementptr inbounds [50 x double], [50 x double]* %7, i64 0, i64 %66
  %68 = load double, double* %67, align 8
  %69 = fsub double %64, %68
  %70 = load i32, i32* %3, align 4
  %71 = sext i32 %70 to i64
  %72 = getelementptr inbounds [100 x [50 x double]], [100 x [50 x double]]* %6, i64 0, i64 %71
  %73 = load i32, i32* %5, align 4
  %74 = sext i32 %73 to i64
  %75 = getelementptr inbounds [50 x double], [50 x double]* %72, i64 0, i64 %74
  %76 = load double, double* %75, align 8
  %77 = load i32, i32* %5, align 4
  %78 = sext i32 %77 to i64
  %79 = getelementptr inbounds [50 x double], [50 x double]* %7, i64 0, i64 %78
  %80 = load double, double* %79, align 8
  %81 = fsub double %76, %80
  %82 = fmul double %69, %81
  %83 = load i32, i32* %5, align 4
  %84 = sext i32 %83 to i64
  %85 = getelementptr inbounds [50 x double], [50 x double]* %8, i64 0, i64 %84
  %86 = load double, double* %85, align 8
  %87 = fadd double %86, %82
  store double %87, double* %85, align 8
  br label %88

88:                                               ; preds = %57
  %89 = load i32, i32* %3, align 4
  %90 = add nsw i32 %89, 1
  store i32 %90, i32* %3, align 4
  br label %53

91:                                               ; preds = %53
  %92 = load i32, i32* %5, align 4
  %93 = sext i32 %92 to i64
  %94 = getelementptr inbounds [50 x double], [50 x double]* %8, i64 0, i64 %93
  %95 = load double, double* %94, align 8
  %96 = load i32, i32* %2, align 4
  %97 = sitofp i32 %96 to double
  %98 = fdiv double %95, %97
  %99 = call double @sqrt(double %98) #3
  %100 = load i32, i32* %5, align 4
  %101 = sext i32 %100 to i64
  %102 = getelementptr inbounds [50 x double], [50 x double]* %8, i64 0, i64 %101
  store double %99, double* %102, align 8
  br label %103

103:                                              ; preds = %91
  %104 = load i32, i32* %5, align 4
  %105 = add nsw i32 %104, 1
  store i32 %105, i32* %5, align 4
  br label %10

106:                                              ; preds = %10
  store i32 0, i32* %5, align 4
  br label %107

107:                                              ; preds = %117, %106
  %108 = load i32, i32* %5, align 4
  %109 = load i32, i32* %4, align 4
  %110 = icmp slt i32 %108, %109
  br i1 %110, label %111, label %120

111:                                              ; preds = %107
  %112 = load i32, i32* %5, align 4
  %113 = sext i32 %112 to i64
  %114 = getelementptr inbounds [50 x double], [50 x double]* %8, i64 0, i64 %113
  %115 = load double, double* %114, align 8
  %116 = call i32 (i8*, ...) @printf(i8* getelementptr inbounds ([7 x i8], [7 x i8]* @.str.2, i64 0, i64 0), double %115)
  br label %117

117:                                              ; preds = %111
  %118 = load i32, i32* %5, align 4
  %119 = add nsw i32 %118, 1
  store i32 %119, i32* %5, align 4
  br label %107

120:                                              ; preds = %107
  ret i32 0
}

declare dso_local i32 @__isoc99_scanf(i8*, ...) #1

; Function Attrs: nounwind
declare dso_local double @sqrt(double) #2

declare dso_local i32 @printf(i8*, ...) #1


!llvm.module.flags = !{!0}
!llvm.ident = !{!1}

!0 = !{i32 1, !"wchar_size", i32 4}
!1 = !{!"clang version 10.0.0-4ubuntu1 "}
